; Function Attrs: mustprogress uwtable
define void @_ZNK10OpenSubdiv6v3_6_03Bfr14SurfaceFactory20assignRegularSurfaceEPNS1_8internal11SurfaceDataERKNS1_11FaceSurfaceE(ptr noundef nonnull readonly align 8 captures(none) dereferenceable(56) %0, ptr noundef initializes((104, 108), (109, 111)) %1, ptr noundef nonnull align 8 dereferenceable(143) %2) local_unnamed_addr #2 align 2 personality ptr @__gxx_personality_v0 {
  %4 = alloca %"class.OpenSubdiv::v3_6_0::Bfr::Parameterization", align 4
  %5 = alloca %"class.OpenSubdiv::v3_6_0::Bfr::RegularPatchBuilder", align 8
  %6 = getelementptr inbounds nuw i8, ptr %0, i64 8
  %7 = load i32, ptr %6, align 8
  %8 = getelementptr inbounds nuw i8, ptr %0, i64 44
  %9 = load i32, ptr %8, align 4
  call void @_ZN10OpenSubdiv6v3_6_03Bfr16ParameterizationC1ENS0_3Sdc10SchemeTypeEi(ptr noundef nonnull align 2 dereferenceable(4) %4, i32 noundef %7, i32 noundef %9)
  %10 = load i32, ptr %4, align 4
  %11 = getelementptr inbounds nuw i8, ptr %1, i64 104
  store i32 %10, ptr %11, align 8
  %12 = getelementptr inbounds nuw i8, ptr %1, i64 108
  %13 = load i8, ptr %12, align 4
  %14 = and i8 %13, -13
  %15 = or disjoint i8 %14, 4
  store i8 %15, ptr %12, align 4
  call void @_ZN10OpenSubdiv6v3_6_03Bfr19RegularPatchBuilderC1ERKNS1_11FaceSurfaceE(ptr noundef nonnull align 8 dereferenceable(24) %5, ptr noundef nonnull align 8 dereferenceable(143) %2)
  %16 = getelementptr inbounds nuw i8, ptr %5, i64 20
  %17 = load i32, ptr %16, align 4
  %18 = trunc i32 %17 to i8
  %19 = getelementptr inbounds nuw i8, ptr %1, i64 109
  store i8 %18, ptr %19, align 1
  %20 = getelementptr inbounds nuw i8, ptr %5, i64 12
  %21 = load i32, ptr %20, align 4
  %22 = trunc i32 %21 to i8
  %23 = getelementptr inbounds nuw i8, ptr %1, i64 110
  store i8 %22, ptr %23, align 2
  %24 = getelementptr inbounds nuw i8, ptr %5, i64 16
  %25 = load i32, ptr %24, align 8
  %26 = icmp eq i32 %25, 0
  br i1 %26, label %27, label %32

27:                                               ; preds = %3
  %28 = getelementptr inbounds nuw i8, ptr %1, i64 96
  %29 = load ptr, ptr %28, align 8
  call void @_ZdlPv(ptr noundef %29) #16
  %30 = getelementptr inbounds nuw i8, ptr %1, i64 16
  store ptr %30, ptr %1, align 8
  %31 = getelementptr inbounds nuw i8, ptr %1, i64 12
  store i32 20, ptr %31, align 4
  br label %42

32:                                               ; preds = %3
  %33 = getelementptr inbounds nuw i8, ptr %1, i64 12
  %34 = load i32, ptr %33, align 4
  %35 = icmp ugt i32 %25, %34
  br i1 %35, label %.noexc, label %._ZN10OpenSubdiv6v3_6_03Vtr8internal11StackBufferIiLj20ELb1EE7SetSizeEj.exit_crit_edge.i

._ZN10OpenSubdiv6v3_6_03Vtr8internal11StackBufferIiLj20ELb1EE7SetSizeEj.exit_crit_edge.i: ; preds = %32
  %.pre.i = load ptr, ptr %1, align 8
  br label %42

.noexc:                                           ; preds = %32
  %36 = getelementptr inbounds nuw i8, ptr %1, i64 96
  %37 = load ptr, ptr %36, align 8
  call void @_ZdlPv(ptr noundef %37) #16
  %38 = getelementptr inbounds nuw i8, ptr %1, i64 16
  store ptr %38, ptr %1, align 8
  store i32 20, ptr %33, align 4
  %39 = zext i32 %25 to i64
  %40 = shl nuw nsw i64 %39, 2
  %41 = call noalias noundef nonnull ptr @_Znwm(i64 noundef %40) #17
  store ptr %41, ptr %36, align 8
  store ptr %41, ptr %1, align 8
  store i32 %25, ptr %33, align 4
  br label %42

42:                                               ; preds = %.noexc, %._ZN10OpenSubdiv6v3_6_03Vtr8internal11StackBufferIiLj20ELb1EE7SetSizeEj.exit_crit_edge.i, %27
  %43 = phi ptr [ %.pre.i, %._ZN10OpenSubdiv6v3_6_03Vtr8internal11StackBufferIiLj20ELb1EE7SetSizeEj.exit_crit_edge.i ], [ %30, %27 ], [ %41, %.noexc ]
  %44 = getelementptr inbounds nuw i8, ptr %1, i64 8
  store i32 %25, ptr %44, align 8
  %45 = call noundef i32 @_ZNK10OpenSubdiv6v3_6_03Bfr19RegularPatchBuilder26GatherControlVertexIndicesEPi(ptr noundef nonnull align 8 dereferenceable(24) %5, ptr noundef %43)
  %46 = load i8, ptr %12, align 4
  %47 = or i8 %46, 1
  store i8 %47, ptr %12, align 4
  ret void
}